target datalayout = "e-m:e-p270:32:32-p271:32:32-p272:64:64-i64:64-i128:128-f80:128-n8:16:32:64-S128"
target triple = "x86_64-pc-linux-gnu"

%"class.sls::bv_eval" = type <{ ptr, ptr, ptr, %"class.sls::bv_lookahead", %class.bv_util, %"class.sls::bv_fixed", [8 x i8], %class.ptr_vector, %class.random_gen, %"struct.sls::bv_eval::config", %class.svector.7, i32, i32, %class.svector.9, %class.svector.11, %class.scoped_ptr_vector, %"class.sls::bvect", %"class.sls::bvect", %"class.sls::bvect", %"class.sls::bvect", %"class.sls::bvect", %"class.sls::bvect", %"class.sls::bvect", %"class.sls::bvect", %"class.sls::bvect", %"class.sls::bvect", %"class.sls::bvect", %"class.sls::bvect", %"class.sls::bvect", i8, [7 x i8] }>
%"class.sls::bv_lookahead" = type { %class.bv_util, ptr, ptr, ptr, %"struct.sls::bv_lookahead::config", %"struct.sls::bv_lookahead::stats", %"class.sls::bvect", %"class.sls::bvect", %class.ptr_vector, %class.svector.1, %class.vector.3, %class.obj_mark, double, double, %"class.sls::bvect", ptr, ptr, %class.ptr_vector, %class.vector.4, %class.obj_mark, i32, %class.tracked_uint_set, i32, i32 }
%"struct.sls::bv_lookahead::config" = type <{ i8, [7 x i8], double, i32, i32, i8, i8, i8, i8, i32, i32, i32, i32, i8, [3 x i8], i32, i32, i32, i8, [3 x i8], double, double, i8, [7 x i8], double, i8, i8, i8, [5 x i8] }>
%"struct.sls::bv_lookahead::stats" = type { i32, i32, i32, i32, i32, i32 }
%class.svector.1 = type { %class.vector.2 }
%class.vector.2 = type { ptr }
%class.vector.3 = type { ptr }
%class.vector.4 = type { ptr }
%class.obj_mark = type { [8 x i8], %class.bit_vector }
%class.bit_vector = type { i32, i32, ptr }
%class.tracked_uint_set = type { %class.svector.5, %class.svector }
%class.svector.5 = type { %class.vector.6 }
%class.vector.6 = type { ptr }
%class.svector = type { %class.vector }
%class.vector = type { ptr }
%class.bv_util = type { %class.bv_recognizers, ptr, ptr }
%class.bv_recognizers = type { i32 }
%"class.sls::bv_fixed" = type { ptr, ptr, ptr, ptr, ptr }
%class.ptr_vector = type { %class.vector.0 }
%class.vector.0 = type { ptr }
%class.random_gen = type { i32 }
%"struct.sls::bv_eval::config" = type { i32 }
%class.svector.7 = type { %class.vector.8 }
%class.vector.8 = type { ptr }
%class.svector.9 = type { %class.vector.10 }
%class.vector.10 = type { ptr }
%class.svector.11 = type { %class.vector.12 }
%class.vector.12 = type { ptr }
%class.scoped_ptr_vector = type { %class.ptr_vector.13 }
%class.ptr_vector.13 = type { %class.vector.14 }
%class.vector.14 = type { ptr }
%"class.sls::bvect" = type <{ %class.svector, i32, i32, i32, [4 x i8] }>
%"class.sls::bv_valuation" = type { %"class.sls::bvect", %"class.sls::bvect", %"class.sls::bvect", %"class.sls::bvect", %"class.sls::bvect", %"class.sls::bvect", i32, i32, i32, i32, %"class.sls::bvect" }

; Function Attrs: mustprogress nounwind uwtable
define linkonce_odr hidden noundef i32 @_ZN10random_genclEv(ptr noundef nonnull align 4 dereferenceable(4) %0) #5 comdat align 2 {
  %2 = alloca ptr, align 8
  store ptr %0, ptr %2, align 8, !tbaa !95
  %3 = load ptr, ptr %2, align 8
  %4 = getelementptr inbounds nuw %class.random_gen, ptr %3, i32 0, i32 0
  %5 = load i32, ptr %4, align 4, !tbaa !98
  %6 = zext i32 %5 to i64
  %7 = mul nsw i64 %6, 214013
  %8 = add nsw i64 %7, 2531011
  %9 = trunc i64 %8 to i32
  %10 = getelementptr inbounds nuw %class.random_gen, ptr %3, i32 0, i32 0
  store i32 %9, ptr %10, align 4, !tbaa !98
  %11 = lshr i32 %9, 16
  %12 = and i32 %11, 32767
  ret i32 %12
}

; Function Attrs: mustprogress uwtable
define linkonce_odr hidden noundef i32 @_ZN10random_genclEj(ptr noundef nonnull align 4 dereferenceable(4) %0, i32 noundef %1) #4 comdat align 2 {
  %3 = alloca ptr, align 8
  %4 = alloca i32, align 4
  %5 = alloca i32, align 4
  store ptr %0, ptr %3, align 8, !tbaa !95
  store i32 %1, ptr %4, align 4, !tbaa !97
  %6 = load ptr, ptr %3, align 8
  call void @llvm.lifetime.start.p0(i64 4, ptr %5) #3
  %7 = call noundef i32 @_ZN10random_genclEv(ptr noundef nonnull align 4 dereferenceable(4) %6)
  store i32 %7, ptr %5, align 4, !tbaa !97
  %8 = load i32, ptr %5, align 4, !tbaa !97
  %9 = load i32, ptr %4, align 4, !tbaa !97
  %10 = urem i32 %8, %9
  call void @llvm.lifetime.end.p0(i64 4, ptr %5) #3
  ret i32 %10
}

; Function Attrs: mustprogress uwtable
define hidden noundef zeroext i1 @_ZN3sls7bv_eval14try_repair_sgeERNS_12bv_valuationERKNS_5bvectES5_(ptr noundef nonnull align 8 dereferenceable(865) %0, ptr noundef nonnull align 8 dereferenceable(184) %1, ptr noundef nonnull align 8 dereferenceable(20) %2, ptr noundef nonnull align 8 dereferenceable(20) %3) #4 align 2 {
  %5 = alloca ptr, align 8
  %6 = alloca ptr, align 8
  %7 = alloca ptr, align 8
  %8 = alloca ptr, align 8
  %9 = alloca ptr, align 8
  %10 = alloca i8, align 1
  %11 = alloca i8, align 1
  store ptr %0, ptr %5, align 8, !tbaa !3
  store ptr %1, ptr %6, align 8, !tbaa !122
  store ptr %2, ptr %7, align 8, !tbaa !110
  store ptr %3, ptr %8, align 8, !tbaa !110
  %12 = load ptr, ptr %5, align 8
  call void @llvm.lifetime.start.p0(i64 8, ptr %9) #3
  %13 = getelementptr inbounds nuw %"class.sls::bv_eval", ptr %12, i32 0, i32 19
  store ptr %13, ptr %9, align 8, !tbaa !110
  %14 = load ptr, ptr %6, align 8, !tbaa !122
  %15 = load ptr, ptr %9, align 8, !tbaa !110
  %16 = load ptr, ptr %8, align 8, !tbaa !110
  %17 = getelementptr inbounds nuw %"class.sls::bv_eval", ptr %12, i32 0, i32 22
  call void @_ZNK3sls12bv_valuation7set_subERNS_5bvectERKS1_S4_(ptr noundef nonnull align 8 dereferenceable(184) %14, ptr noundef nonnull align 8 dereferenceable(20) %15, ptr noundef nonnull align 8 dereferenceable(20) %16, ptr noundef nonnull align 8 dereferenceable(20) %17)
  %18 = load ptr, ptr %9, align 8, !tbaa !110
  %19 = load ptr, ptr %6, align 8, !tbaa !122
  %20 = getelementptr inbounds nuw %"class.sls::bv_valuation", ptr %19, i32 0, i32 8
  %21 = load i32, ptr %20, align 8, !tbaa !124
  call void @_ZN3sls5bvect6set_bwEj(ptr noundef nonnull align 8 dereferenceable(20) %18, i32 noundef %21)
  call void @llvm.lifetime.start.p0(i64 1, ptr %10) #3
  store i8 0, ptr %10, align 1, !tbaa !133
  %22 = load ptr, ptr %7, align 8, !tbaa !110
  %23 = load ptr, ptr %8, align 8, !tbaa !110
  %24 = call noundef zeroext i1 @_ZN3slsltERKNS_5bvectES2_(ptr noundef nonnull align 8 dereferenceable(20) %22, ptr noundef nonnull align 8 dereferenceable(20) %23)
  br i1 %24, label %25, label %32

25:                                               ; preds = %4
  %26 = load ptr, ptr %6, align 8, !tbaa !122
  %27 = load ptr, ptr %7, align 8, !tbaa !110
  %28 = load ptr, ptr %9, align 8, !tbaa !110
  %29 = getelementptr inbounds nuw %"class.sls::bv_eval", ptr %12, i32 0, i32 8
  %30 = call noundef zeroext i1 @_ZN3sls12bv_valuation19set_random_in_rangeERKNS_5bvectES3_R10random_gen(ptr noundef nonnull align 8 dereferenceable(184) %26, ptr noundef nonnull align 8 dereferenceable(20) %27, ptr noundef nonnull align 8 dereferenceable(20) %28, ptr noundef nonnull align 4 dereferenceable(4) %29)
  %31 = zext i1 %30 to i8
  store i8 %31, ptr %10, align 1, !tbaa !133
  br label %67

32:                                               ; preds = %4
  call void @llvm.lifetime.start.p0(i64 1, ptr %11) #3
  %33 = getelementptr inbounds nuw %"class.sls::bv_eval", ptr %12, i32 0, i32 8
  %34 = call noundef i32 @_ZN10random_genclEj(ptr noundef nonnull align 4 dereferenceable(4) %33, i32 noundef 2)
  %35 = icmp eq i32 %34, 0
  %36 = zext i1 %35 to i8
  store i8 %36, ptr %11, align 1, !tbaa !133
  %37 = load i8, ptr %11, align 1, !tbaa !133, !range !134, !noundef !135
  %38 = trunc i8 %37 to i1
  br i1 %38, label %39, label %45

39:                                               ; preds = %32
  %40 = load ptr, ptr %6, align 8, !tbaa !122
  %41 = load ptr, ptr %9, align 8, !tbaa !110
  %42 = getelementptr inbounds nuw %"class.sls::bv_eval", ptr %12, i32 0, i32 8
  %43 = call noundef zeroext i1 @_ZN3sls12bv_valuation18set_random_at_mostERKNS_5bvectER10random_gen(ptr noundef nonnull align 8 dereferenceable(184) %40, ptr noundef nonnull align 8 dereferenceable(20) %41, ptr noundef nonnull align 4 dereferenceable(4) %42)
  %44 = zext i1 %43 to i8
  store i8 %44, ptr %10, align 1, !tbaa !133
  br label %45

45:                                               ; preds = %39, %32
  %46 = load i8, ptr %10, align 1, !tbaa !133, !range !134, !noundef !135
  %47 = trunc i8 %46 to i1
  br i1 %47, label %54, label %48

48:                                               ; preds = %45
  %49 = load ptr, ptr %6, align 8, !tbaa !122
  %50 = load ptr, ptr %7, align 8, !tbaa !110
  %51 = getelementptr inbounds nuw %"class.sls::bv_eval", ptr %12, i32 0, i32 8
  %52 = call noundef zeroext i1 @_ZN3sls12bv_valuation19set_random_at_leastERKNS_5bvectER10random_gen(ptr noundef nonnull align 8 dereferenceable(184) %49, ptr noundef nonnull align 8 dereferenceable(20) %50, ptr noundef nonnull align 4 dereferenceable(4) %51)
  %53 = zext i1 %52 to i8
  store i8 %53, ptr %10, align 1, !tbaa !133
  br label %54

54:                                               ; preds = %48, %45
  %55 = load i8, ptr %10, align 1, !tbaa !133, !range !134, !noundef !135
  %56 = trunc i8 %55 to i1
  br i1 %56, label %66, label %57

57:                                               ; preds = %54
  %58 = load i8, ptr %11, align 1, !tbaa !133, !range !134, !noundef !135
  %59 = trunc i8 %58 to i1
  br i1 %59, label %66, label %60

60:                                               ; preds = %57
  %61 = load ptr, ptr %6, align 8, !tbaa !122
  %62 = load ptr, ptr %9, align 8, !tbaa !110
  %63 = getelementptr inbounds nuw %"class.sls::bv_eval", ptr %12, i32 0, i32 8
  %64 = call noundef zeroext i1 @_ZN3sls12bv_valuation18set_random_at_mostERKNS_5bvectER10random_gen(ptr noundef nonnull align 8 dereferenceable(184) %61, ptr noundef nonnull align 8 dereferenceable(20) %62, ptr noundef nonnull align 4 dereferenceable(4) %63)
  %65 = zext i1 %64 to i8
  store i8 %65, ptr %10, align 1, !tbaa !133
  br label %66

66:                                               ; preds = %60, %57, %54
  call void @llvm.lifetime.end.p0(i64 1, ptr %11) #3
  br label %67

67:                                               ; preds = %66, %25
  %68 = load ptr, ptr %9, align 8, !tbaa !110
  call void @_ZN3sls5bvect6set_bwEj(ptr noundef nonnull align 8 dereferenceable(20) %68, i32 noundef 0)
  %69 = load i8, ptr %10, align 1, !tbaa !133, !range !134, !noundef !135
  %70 = trunc i8 %69 to i1
  call void @llvm.lifetime.end.p0(i64 1, ptr %10) #3
  call void @llvm.lifetime.end.p0(i64 8, ptr %9) #3
  ret i1 %70
}