; Function Attrs: mustprogress uwtable
define hidden noundef zeroext i1 @_ZN3sls7bv_eval14try_repair_sgeERNS_12bv_valuationERKNS_5bvectES5_(ptr noundef nonnull align 8 dereferenceable(865) %0, ptr noundef nonnull align 8 dereferenceable(184) %1, ptr noundef nonnull align 8 dereferenceable(20) %2, ptr noundef nonnull align 8 dereferenceable(20) %3) local_unnamed_addr #3 align 2 {
  %5 = getelementptr inbounds nuw i8, ptr %0, i64 624
  %6 = getelementptr inbounds nuw i8, ptr %0, i64 696
  tail call void @_ZNK3sls12bv_valuation7set_subERNS_5bvectERKS1_S4_(ptr noundef nonnull align 8 dereferenceable(184) %1, ptr noundef nonnull align 8 dereferenceable(20) %5, ptr noundef nonnull align 8 dereferenceable(20) %3, ptr noundef nonnull align 8 dereferenceable(20) %6)
  %7 = getelementptr inbounds nuw i8, ptr %1, i64 152
  %8 = load i32, ptr %7, align 8, !tbaa !128
  tail call void @_ZN3sls5bvect6set_bwEj(ptr noundef nonnull align 8 dereferenceable(20) %5, i32 noundef %8)
  %9 = tail call noundef zeroext i1 @_ZN3slsltERKNS_5bvectES2_(ptr noundef nonnull align 8 dereferenceable(20) %2, ptr noundef nonnull align 8 dereferenceable(20) %3)
  %10 = getelementptr inbounds nuw i8, ptr %0, i64 504
  br i1 %9, label %11, label %13

11:                                               ; preds = %4
  %12 = tail call noundef zeroext i1 @_ZN3sls12bv_valuation19set_random_in_rangeERKNS_5bvectES3_R10random_gen(ptr noundef nonnull align 8 dereferenceable(184) %1, ptr noundef nonnull align 8 dereferenceable(20) %2, ptr noundef nonnull align 8 dereferenceable(20) %5, ptr noundef nonnull align 4 dereferenceable(4) %10)
  br label %.thread23

13:                                               ; preds = %4
  %14 = load i32, ptr %10, align 8, !tbaa !91
  %15 = mul i32 %14, 214013
  %16 = add i32 %15, 2531011
  store i32 %16, ptr %10, align 8, !tbaa !91
  %17 = and i32 %16, 65536
  %18 = icmp eq i32 %17, 0
  br i1 %18, label %19, label %22

19:                                               ; preds = %13
  %20 = tail call noundef zeroext i1 @_ZN3sls12bv_valuation18set_random_at_mostERKNS_5bvectER10random_gen(ptr noundef nonnull align 8 dereferenceable(184) %1, ptr noundef nonnull align 8 dereferenceable(20) %5, ptr noundef nonnull align 4 dereferenceable(4) %10)
  br i1 %20, label %.thread23, label %.thread26

.thread26:                                        ; preds = %19
  %21 = tail call noundef zeroext i1 @_ZN3sls12bv_valuation19set_random_at_leastERKNS_5bvectER10random_gen(ptr noundef nonnull align 8 dereferenceable(184) %1, ptr noundef nonnull align 8 dereferenceable(20) %2, ptr noundef nonnull align 4 dereferenceable(4) %10)
  br label %.thread23

22:                                               ; preds = %13
  %23 = tail call noundef zeroext i1 @_ZN3sls12bv_valuation19set_random_at_leastERKNS_5bvectER10random_gen(ptr noundef nonnull align 8 dereferenceable(184) %1, ptr noundef nonnull align 8 dereferenceable(20) %2, ptr noundef nonnull align 4 dereferenceable(4) %10)
  br i1 %23, label %.thread23, label %24

24:                                               ; preds = %22
  %25 = tail call noundef zeroext i1 @_ZN3sls12bv_valuation18set_random_at_mostERKNS_5bvectER10random_gen(ptr noundef nonnull align 8 dereferenceable(184) %1, ptr noundef nonnull align 8 dereferenceable(20) %5, ptr noundef nonnull align 4 dereferenceable(4) %10)
  br label %.thread23

.thread23:                                        ; preds = %24, %22, %.thread26, %19, %11
  %.0 = phi i1 [ %12, %11 ], [ true, %22 ], [ %25, %24 ], [ %21, %.thread26 ], [ true, %19 ]
  tail call void @_ZN3sls5bvect6set_bwEj(ptr noundef nonnull align 8 dereferenceable(20) %5, i32 noundef 0)
  ret i1 %.0
}